; Function Attrs: nofree norecurse nosync nounwind memory(argmem: readwrite) uwtable
define internal fastcc void @tea_crypt_ecb(ptr noundef readonly captures(none) %0, ptr noundef writeonly captures(none) %1, ptr noundef readonly captures(none) %2, i32 noundef %3, ptr noundef captures(address_is_null) %4) unnamed_addr #2 {
  %6 = getelementptr inbounds nuw i8, ptr %0, i64 64
  %7 = load i32, ptr %6, align 4, !tbaa !11
  %8 = load i32, ptr %0, align 4, !tbaa !7
  %9 = getelementptr inbounds nuw i8, ptr %0, i64 4
  %10 = load i32, ptr %9, align 4, !tbaa !7
  %11 = getelementptr inbounds nuw i8, ptr %0, i64 8
  %12 = load i32, ptr %11, align 4, !tbaa !7
  %13 = getelementptr inbounds nuw i8, ptr %0, i64 12
  %14 = load i32, ptr %13, align 4, !tbaa !7
  %15 = load i32, ptr %2, align 1, !tbaa !4
  %16 = tail call i32 @llvm.bswap.i32(i32 %15)
  %17 = getelementptr inbounds nuw i8, ptr %2, i64 4
  %18 = load i32, ptr %17, align 1, !tbaa !4
  %19 = tail call i32 @llvm.bswap.i32(i32 %18)
  %.not = icmp eq i32 %3, 0
  %20 = sdiv i32 %7, 2
  %21 = icmp sgt i32 %7, 1
  br i1 %.not, label %.preheader, label %22

.preheader:                                       ; preds = %5
  br i1 %21, label %.lr.ph77, label %.loopexit

22:                                               ; preds = %5
  br i1 %21, label %.lr.ph.preheader, label %._crit_edge

.lr.ph.preheader:                                 ; preds = %22
  %23 = mul i32 %20, -1640531527
  br label %.lr.ph

.lr.ph:                                           ; preds = %.lr.ph.preheader, %.lr.ph
  %.071 = phi i32 [ %39, %.lr.ph ], [ %16, %.lr.ph.preheader ]
  %.06070 = phi i32 [ %40, %.lr.ph ], [ %23, %.lr.ph.preheader ]
  %.06169 = phi i32 [ %31, %.lr.ph ], [ %19, %.lr.ph.preheader ]
  %.06568 = phi i32 [ %41, %.lr.ph ], [ 0, %.lr.ph.preheader ]
  %24 = shl i32 %.071, 4
  %25 = add i32 %24, %12
  %26 = add i32 %.071, %.06070
  %27 = xor i32 %25, %26
  %28 = lshr i32 %.071, 5
  %29 = add i32 %28, %14
  %30 = xor i32 %27, %29
  %31 = sub i32 %.06169, %30
  %32 = shl i32 %31, 4
  %33 = add i32 %32, %8
  %34 = add i32 %31, %.06070
  %35 = xor i32 %33, %34
  %36 = lshr i32 %31, 5
  %37 = add i32 %36, %10
  %38 = xor i32 %35, %37
  %39 = sub i32 %.071, %38
  %40 = add i32 %.06070, 1640531527
  %41 = add nuw nsw i32 %.06568, 1
  %exitcond.not = icmp eq i32 %41, %20
  br i1 %exitcond.not, label %._crit_edge, label %.lr.ph, !llvm.loop !17

._crit_edge:                                      ; preds = %.lr.ph, %22
  %.061.lcssa = phi i32 [ %19, %22 ], [ %31, %.lr.ph ]
  %.0.lcssa = phi i32 [ %16, %22 ], [ %39, %.lr.ph ]
  %.not67 = icmp eq ptr %4, null
  br i1 %.not67, label %.loopexit, label %42

42:                                               ; preds = %._crit_edge
  %43 = load i32, ptr %4, align 1, !tbaa !4
  %44 = tail call i32 @llvm.bswap.i32(i32 %43)
  %45 = xor i32 %44, %.0.lcssa
  %46 = getelementptr inbounds nuw i8, ptr %4, i64 4
  %47 = load i32, ptr %46, align 1, !tbaa !4
  %48 = tail call i32 @llvm.bswap.i32(i32 %47)
  %49 = xor i32 %48, %.061.lcssa
  %50 = load i64, ptr %2, align 1
  store i64 %50, ptr %4, align 1
  br label %.loopexit

.lr.ph77:                                         ; preds = %.preheader, %.lr.ph77
  %.376 = phi i32 [ %59, %.lr.ph77 ], [ %16, %.preheader ]
  %.05875 = phi i32 [ %51, %.lr.ph77 ], [ 0, %.preheader ]
  %.05974 = phi i32 [ %68, %.lr.ph77 ], [ 0, %.preheader ]
  %.36473 = phi i32 [ %67, %.lr.ph77 ], [ %19, %.preheader ]
  %51 = add i32 %.05875, -1640531527
  %52 = shl i32 %.36473, 4
  %53 = add i32 %52, %8
  %54 = add i32 %51, %.36473
  %55 = lshr i32 %.36473, 5
  %56 = add i32 %55, %10
  %57 = xor i32 %56, %53
  %58 = xor i32 %57, %54
  %59 = add i32 %58, %.376
  %60 = shl i32 %59, 4
  %61 = add i32 %60, %12
  %62 = add i32 %59, %51
  %63 = xor i32 %61, %62
  %64 = lshr i32 %59, 5
  %65 = add i32 %64, %14
  %66 = xor i32 %63, %65
  %67 = add i32 %66, %.36473
  %68 = add nuw nsw i32 %.05974, 1
  %exitcond83.not = icmp eq i32 %68, %20
  br i1 %exitcond83.not, label %.loopexit, label %.lr.ph77, !llvm.loop !13

.loopexit:                                        ; preds = %.lr.ph77, %.preheader, %._crit_edge, %42
  %.263 = phi i32 [ %49, %42 ], [ %.061.lcssa, %._crit_edge ], [ %19, %.preheader ], [ %67, %.lr.ph77 ]
  %.2 = phi i32 [ %45, %42 ], [ %.0.lcssa, %._crit_edge ], [ %16, %.preheader ], [ %59, %.lr.ph77 ]
  %69 = tail call i32 @llvm.bswap.i32(i32 %.2)
  store i32 %69, ptr %1, align 1, !tbaa !4
  %70 = tail call i32 @llvm.bswap.i32(i32 %.263)
  %71 = getelementptr inbounds nuw i8, ptr %1, i64 4
  store i32 %70, ptr %71, align 1, !tbaa !4
  ret void
}